target datalayout = "e-m:e-p270:32:32-p271:32:32-p272:64:64-i64:64-i128:128-f80:128-n8:16:32:64-S128"
target triple = "x86_64-pc-linux-gnu"

%struct.ossl_cmp_msg_st = type { ptr, ptr, ptr, ptr, ptr, ptr }
%struct.ossl_cmp_pkibody_st = type { i32, %union.anon }
%union.anon = type { ptr }
%struct.ossl_cmp_errormsgcontent_st = type { ptr, ptr, ptr }

@.str = private unnamed_addr constant [32 x i8] c"../openssl/crypto/cmp/cmp_msg.c\00", align 1
@__func__.ossl_cmp_error_new = private unnamed_addr constant [19 x i8] c"ossl_cmp_error_new\00", align 1

; Function Attrs: nounwind uwtable
define void @OSSL_CMP_MSG_free(ptr noundef %0) #0 {
  %2 = alloca ptr, align 8
  store ptr %0, ptr %2, align 8, !tbaa !10
  %3 = load ptr, ptr %2, align 8, !tbaa !10
  %4 = call ptr @OSSL_CMP_MSG_it()
  call void @ASN1_item_free(ptr noundef %3, ptr noundef %4)
  ret void
}

; Function Attrs: nounwind uwtable
define ptr @ossl_cmp_error_new(ptr noundef %0, ptr noundef %1, i64 noundef %2, ptr noundef %3, i32 noundef %4) #0 {
  %6 = alloca ptr, align 8
  %7 = alloca ptr, align 8
  %8 = alloca ptr, align 8
  %9 = alloca i64, align 8
  %10 = alloca ptr, align 8
  %11 = alloca i32, align 4
  %12 = alloca ptr, align 8
  %13 = alloca ptr, align 8
  %14 = alloca ptr, align 8
  %15 = alloca ptr, align 8
  %16 = alloca i32, align 4
  store ptr %0, ptr %7, align 8, !tbaa !34
  store ptr %1, ptr %8, align 8, !tbaa !82
  store i64 %2, ptr %9, align 8, !tbaa !64
  store ptr %3, ptr %10, align 8, !tbaa !8
  store i32 %4, ptr %11, align 4, !tbaa !20
  call void @llvm.lifetime.start.p0(i64 8, ptr %12) #6
  store ptr null, ptr %12, align 8, !tbaa !10
  call void @llvm.lifetime.start.p0(i64 8, ptr %13) #6
  store ptr null, ptr %13, align 8, !tbaa !8
  call void @llvm.lifetime.start.p0(i64 8, ptr %14) #6
  store ptr null, ptr %14, align 8, !tbaa !8
  call void @llvm.lifetime.start.p0(i64 8, ptr %15) #6
  %17 = load ptr, ptr %7, align 8, !tbaa !34
  %18 = icmp ne ptr %17, null
  br i1 %18, label %19, label %22

19:                                               ; preds = %5
  %20 = load ptr, ptr %8, align 8, !tbaa !82
  %21 = icmp ne ptr %20, null
  br label %22

22:                                               ; preds = %19, %5
  %23 = phi i1 [ false, %5 ], [ %21, %19 ]
  %24 = zext i1 %23 to i32
  %25 = icmp ne i32 %24, 0
  %26 = xor i1 %25, true
  %27 = xor i1 %26, true
  %28 = zext i1 %27 to i32
  %29 = sext i32 %28 to i64
  %30 = call i64 @llvm.expect.i64(i64 %29, i64 1)
  %31 = icmp ne i64 %30, 0
  br i1 %31, label %33, label %32

32:                                               ; preds = %22
  store ptr null, ptr %6, align 8
  store i32 1, ptr %16, align 4
  br label %160

33:                                               ; preds = %22
  %34 = load ptr, ptr %7, align 8, !tbaa !34
  %35 = call ptr @ossl_cmp_msg_create(ptr noundef %34, i32 noundef 23)
  store ptr %35, ptr %12, align 8, !tbaa !10
  %36 = icmp eq ptr %35, null
  br i1 %36, label %37, label %38

37:                                               ; preds = %33
  br label %158

38:                                               ; preds = %33
  %39 = load ptr, ptr %12, align 8, !tbaa !10
  %40 = getelementptr inbounds nuw %struct.ossl_cmp_msg_st, ptr %39, i32 0, i32 1
  %41 = load ptr, ptr %40, align 8, !tbaa !22
  %42 = getelementptr inbounds nuw %struct.ossl_cmp_pkibody_st, ptr %41, i32 0, i32 1
  %43 = load ptr, ptr %42, align 8, !tbaa !25
  %44 = getelementptr inbounds nuw %struct.ossl_cmp_errormsgcontent_st, ptr %43, i32 0, i32 0
  %45 = load ptr, ptr %44, align 8, !tbaa !141
  call void @OSSL_CMP_PKISI_free(ptr noundef %45)
  %46 = load ptr, ptr %8, align 8, !tbaa !82
  %47 = call ptr @OSSL_CMP_PKISI_dup(ptr noundef %46)
  %48 = load ptr, ptr %12, align 8, !tbaa !10
  %49 = getelementptr inbounds nuw %struct.ossl_cmp_msg_st, ptr %48, i32 0, i32 1
  %50 = load ptr, ptr %49, align 8, !tbaa !22
  %51 = getelementptr inbounds nuw %struct.ossl_cmp_pkibody_st, ptr %50, i32 0, i32 1
  %52 = load ptr, ptr %51, align 8, !tbaa !25
  %53 = getelementptr inbounds nuw %struct.ossl_cmp_errormsgcontent_st, ptr %52, i32 0, i32 0
  store ptr %47, ptr %53, align 8, !tbaa !141
  %54 = icmp eq ptr %47, null
  br i1 %54, label %55, label %56

55:                                               ; preds = %38
  br label %158

56:                                               ; preds = %38
  %57 = call ptr @ASN1_INTEGER_new()
  %58 = load ptr, ptr %12, align 8, !tbaa !10
  %59 = getelementptr inbounds nuw %struct.ossl_cmp_msg_st, ptr %58, i32 0, i32 1
  %60 = load ptr, ptr %59, align 8, !tbaa !22
  %61 = getelementptr inbounds nuw %struct.ossl_cmp_pkibody_st, ptr %60, i32 0, i32 1
  %62 = load ptr, ptr %61, align 8, !tbaa !25
  %63 = getelementptr inbounds nuw %struct.ossl_cmp_errormsgcontent_st, ptr %62, i32 0, i32 1
  store ptr %57, ptr %63, align 8, !tbaa !143
  %64 = icmp eq ptr %57, null
  br i1 %64, label %65, label %66

65:                                               ; preds = %56
  br label %158

66:                                               ; preds = %56
  %67 = load ptr, ptr %12, align 8, !tbaa !10
  %68 = getelementptr inbounds nuw %struct.ossl_cmp_msg_st, ptr %67, i32 0, i32 1
  %69 = load ptr, ptr %68, align 8, !tbaa !22
  %70 = getelementptr inbounds nuw %struct.ossl_cmp_pkibody_st, ptr %69, i32 0, i32 1
  %71 = load ptr, ptr %70, align 8, !tbaa !25
  %72 = getelementptr inbounds nuw %struct.ossl_cmp_errormsgcontent_st, ptr %71, i32 0, i32 1
  %73 = load ptr, ptr %72, align 8, !tbaa !143
  %74 = load i64, ptr %9, align 8, !tbaa !64
  %75 = call i32 @ASN1_INTEGER_set_int64(ptr noundef %73, i64 noundef %74)
  %76 = icmp ne i32 %75, 0
  br i1 %76, label %78, label %77

77:                                               ; preds = %66
  br label %158

78:                                               ; preds = %66
  %79 = load i64, ptr %9, align 8, !tbaa !64
  %80 = icmp sgt i64 %79, 0
  br i1 %80, label %81, label %89

81:                                               ; preds = %78
  %82 = load i64, ptr %9, align 8, !tbaa !64
  %83 = icmp ult i64 %82, 4294967296
  br i1 %83, label %84, label %89

84:                                               ; preds = %81
  %85 = load i64, ptr %9, align 8, !tbaa !64
  %86 = call ptr @ERR_lib_error_string(i64 noundef %85)
  store ptr %86, ptr %13, align 8, !tbaa !8
  %87 = load i64, ptr %9, align 8, !tbaa !64
  %88 = call ptr @ERR_reason_error_string(i64 noundef %87)
  store ptr %88, ptr %14, align 8, !tbaa !8
  br label %89

89:                                               ; preds = %84, %81, %78
  %90 = load ptr, ptr %13, align 8, !tbaa !8
  %91 = icmp ne ptr %90, null
  br i1 %91, label %98, label %92

92:                                               ; preds = %89
  %93 = load ptr, ptr %14, align 8, !tbaa !8
  %94 = icmp ne ptr %93, null
  br i1 %94, label %98, label %95

95:                                               ; preds = %92
  %96 = load ptr, ptr %10, align 8, !tbaa !8
  %97 = icmp ne ptr %96, null
  br i1 %97, label %98, label %147

98:                                               ; preds = %95, %92, %89
  %99 = call ptr @OPENSSL_sk_new_null()
  store ptr %99, ptr %15, align 8, !tbaa !144
  %100 = icmp eq ptr %99, null
  br i1 %100, label %101, label %102

101:                                              ; preds = %98
  br label %158

102:                                              ; preds = %98
  %103 = load ptr, ptr %15, align 8, !tbaa !144
  %104 = load ptr, ptr %12, align 8, !tbaa !10
  %105 = getelementptr inbounds nuw %struct.ossl_cmp_msg_st, ptr %104, i32 0, i32 1
  %106 = load ptr, ptr %105, align 8, !tbaa !22
  %107 = getelementptr inbounds nuw %struct.ossl_cmp_pkibody_st, ptr %106, i32 0, i32 1
  %108 = load ptr, ptr %107, align 8, !tbaa !25
  %109 = getelementptr inbounds nuw %struct.ossl_cmp_errormsgcontent_st, ptr %108, i32 0, i32 2
  store ptr %103, ptr %109, align 8, !tbaa !145
  %110 = load ptr, ptr %13, align 8, !tbaa !8
  %111 = icmp ne ptr %110, null
  br i1 %111, label %112, label %123

112:                                              ; preds = %102
  %113 = load ptr, ptr %13, align 8, !tbaa !8
  %114 = load i8, ptr %113, align 1, !tbaa !25
  %115 = sext i8 %114 to i32
  %116 = icmp ne i32 %115, 0
  br i1 %116, label %117, label %123

117:                                              ; preds = %112
  %118 = load ptr, ptr %15, align 8, !tbaa !144
  %119 = load ptr, ptr %13, align 8, !tbaa !8
  %120 = call i32 @ossl_cmp_sk_ASN1_UTF8STRING_push_str(ptr noundef %118, ptr noundef %119, i32 noundef -1)
  %121 = icmp ne i32 %120, 0
  br i1 %121, label %123, label %122

122:                                              ; preds = %117
  br label %158

123:                                              ; preds = %117, %112, %102
  %124 = load ptr, ptr %14, align 8, !tbaa !8
  %125 = icmp ne ptr %124, null
  br i1 %125, label %126, label %137

126:                                              ; preds = %123
  %127 = load ptr, ptr %14, align 8, !tbaa !8
  %128 = load i8, ptr %127, align 1, !tbaa !25
  %129 = sext i8 %128 to i32
  %130 = icmp ne i32 %129, 0
  br i1 %130, label %131, label %137

131:                                              ; preds = %126
  %132 = load ptr, ptr %15, align 8, !tbaa !144
  %133 = load ptr, ptr %14, align 8, !tbaa !8
  %134 = call i32 @ossl_cmp_sk_ASN1_UTF8STRING_push_str(ptr noundef %132, ptr noundef %133, i32 noundef -1)
  %135 = icmp ne i32 %134, 0
  br i1 %135, label %137, label %136

136:                                              ; preds = %131
  br label %158

137:                                              ; preds = %131, %126, %123
  %138 = load ptr, ptr %10, align 8, !tbaa !8
  %139 = icmp ne ptr %138, null
  br i1 %139, label %140, label %146

140:                                              ; preds = %137
  %141 = load ptr, ptr %15, align 8, !tbaa !144
  %142 = load ptr, ptr %10, align 8, !tbaa !8
  %143 = call i32 @ossl_cmp_sk_ASN1_UTF8STRING_push_str(ptr noundef %141, ptr noundef %142, i32 noundef -1)
  %144 = icmp ne i32 %143, 0
  br i1 %144, label %146, label %145

145:                                              ; preds = %140
  br label %158

146:                                              ; preds = %140, %137
  br label %147

147:                                              ; preds = %146, %95
  %148 = load i32, ptr %11, align 4, !tbaa !20
  %149 = icmp ne i32 %148, 0
  br i1 %149, label %156, label %150

150:                                              ; preds = %147
  %151 = load ptr, ptr %7, align 8, !tbaa !34
  %152 = load ptr, ptr %12, align 8, !tbaa !10
  %153 = call i32 @ossl_cmp_msg_protect(ptr noundef %151, ptr noundef %152)
  %154 = icmp ne i32 %153, 0
  br i1 %154, label %156, label %155

155:                                              ; preds = %150
  br label %158

156:                                              ; preds = %150, %147
  %157 = load ptr, ptr %12, align 8, !tbaa !10
  store ptr %157, ptr %6, align 8
  store i32 1, ptr %16, align 4
  br label %160

158:                                              ; preds = %155, %145, %136, %122, %101, %77, %65, %55, %37
  call void @ERR_new()
  call void @ERR_set_debug(ptr noundef @.str, i32 noundef 832, ptr noundef @__func__.ossl_cmp_error_new)
  call void (i32, i32, ptr, ...) @ERR_set_error(i32 noundef 58, i32 noundef 118, ptr noundef null)
  %159 = load ptr, ptr %12, align 8, !tbaa !10
  call void @OSSL_CMP_MSG_free(ptr noundef %159)
  store ptr null, ptr %6, align 8
  store i32 1, ptr %16, align 4
  br label %160

160:                                              ; preds = %158, %156, %32
  call void @llvm.lifetime.end.p0(i64 8, ptr %15) #6
  call void @llvm.lifetime.end.p0(i64 8, ptr %14) #6
  call void @llvm.lifetime.end.p0(i64 8, ptr %13) #6
  call void @llvm.lifetime.end.p0(i64 8, ptr %12) #6
  %161 = load ptr, ptr %6, align 8
  ret ptr %161
}