; Function Attrs: nounwind uwtable
define ptr @ossl_cmp_error_new(ptr noundef %0, ptr noundef %1, i64 noundef %2, ptr noundef %3, i32 noundef %4) local_unnamed_addr #0 {
  %6 = icmp ne ptr %0, null
  %7 = icmp ne ptr %1, null
  %8 = and i1 %6, %7
  br i1 %8, label %9, label %69, !prof !56

9:                                                ; preds = %5
  %10 = tail call ptr @ossl_cmp_msg_create(ptr noundef nonnull %0, i32 noundef 23)
  %11 = icmp eq ptr %10, null
  br i1 %11, label %67, label %12

12:                                               ; preds = %9
  %13 = getelementptr inbounds nuw i8, ptr %10, i64 8
  %14 = load ptr, ptr %13, align 8, !tbaa !17
  %15 = getelementptr inbounds nuw i8, ptr %14, i64 8
  %16 = load ptr, ptr %15, align 8, !tbaa !22
  %17 = load ptr, ptr %16, align 8, !tbaa !92
  tail call void @OSSL_CMP_PKISI_free(ptr noundef %17) #7
  %18 = tail call ptr @OSSL_CMP_PKISI_dup(ptr noundef nonnull %1) #7
  %19 = load ptr, ptr %13, align 8, !tbaa !17
  %20 = getelementptr inbounds nuw i8, ptr %19, i64 8
  %21 = load ptr, ptr %20, align 8, !tbaa !22
  store ptr %18, ptr %21, align 8, !tbaa !92
  %22 = icmp eq ptr %18, null
  br i1 %22, label %67, label %23

23:                                               ; preds = %12
  %24 = tail call ptr @ASN1_INTEGER_new() #7
  %25 = load ptr, ptr %13, align 8, !tbaa !17
  %26 = getelementptr inbounds nuw i8, ptr %25, i64 8
  %27 = load ptr, ptr %26, align 8, !tbaa !22
  %28 = getelementptr inbounds nuw i8, ptr %27, i64 8
  store ptr %24, ptr %28, align 8, !tbaa !94
  %29 = icmp eq ptr %24, null
  br i1 %29, label %67, label %30

30:                                               ; preds = %23
  %31 = load ptr, ptr %26, align 8, !tbaa !22
  %32 = getelementptr inbounds nuw i8, ptr %31, i64 8
  %33 = load ptr, ptr %32, align 8, !tbaa !94
  %34 = tail call i32 @ASN1_INTEGER_set_int64(ptr noundef %33, i64 noundef %2) #7
  %.not = icmp eq i32 %34, 0
  br i1 %.not, label %67, label %35

35:                                               ; preds = %30
  %36 = add i64 %2, -1
  %or.cond = icmp ult i64 %36, 4294967295
  br i1 %or.cond, label %37, label %40

37:                                               ; preds = %35
  %38 = tail call ptr @ERR_lib_error_string(i64 noundef %2) #7
  %39 = tail call ptr @ERR_reason_error_string(i64 noundef %2) #7
  br label %40

40:                                               ; preds = %37, %35
  %.040 = phi ptr [ %38, %37 ], [ null, %35 ]
  %.039 = phi ptr [ %39, %37 ], [ null, %35 ]
  %41 = icmp ne ptr %.040, null
  %42 = icmp ne ptr %.039, null
  %or.cond3 = select i1 %41, i1 true, i1 %42
  %43 = icmp ne ptr %3, null
  %or.cond5 = or i1 %43, %or.cond3
  br i1 %or.cond5, label %44, label %64

44:                                               ; preds = %40
  %45 = tail call ptr @OPENSSL_sk_new_null() #7
  %46 = icmp eq ptr %45, null
  br i1 %46, label %67, label %47

47:                                               ; preds = %44
  %48 = load ptr, ptr %13, align 8, !tbaa !17
  %49 = getelementptr inbounds nuw i8, ptr %48, i64 8
  %50 = load ptr, ptr %49, align 8, !tbaa !22
  %51 = getelementptr inbounds nuw i8, ptr %50, i64 16
  store ptr %45, ptr %51, align 8, !tbaa !95
  br i1 %41, label %52, label %56

52:                                               ; preds = %47
  %53 = load i8, ptr %.040, align 1, !tbaa !22
  %.not47 = icmp eq i8 %53, 0
  br i1 %.not47, label %56, label %54

54:                                               ; preds = %52
  %55 = tail call i32 @ossl_cmp_sk_ASN1_UTF8STRING_push_str(ptr noundef nonnull %45, ptr noundef nonnull %.040, i32 noundef -1) #7
  %.not48 = icmp eq i32 %55, 0
  br i1 %.not48, label %67, label %56

56:                                               ; preds = %54, %52, %47
  br i1 %42, label %57, label %61

57:                                               ; preds = %56
  %58 = load i8, ptr %.039, align 1, !tbaa !22
  %.not49 = icmp eq i8 %58, 0
  br i1 %.not49, label %61, label %59

59:                                               ; preds = %57
  %60 = tail call i32 @ossl_cmp_sk_ASN1_UTF8STRING_push_str(ptr noundef nonnull %45, ptr noundef nonnull %.039, i32 noundef -1) #7
  %.not50 = icmp eq i32 %60, 0
  br i1 %.not50, label %67, label %61

61:                                               ; preds = %59, %57, %56
  br i1 %43, label %62, label %64

62:                                               ; preds = %61
  %63 = tail call i32 @ossl_cmp_sk_ASN1_UTF8STRING_push_str(ptr noundef nonnull %45, ptr noundef nonnull %3, i32 noundef -1) #7
  %.not51 = icmp eq i32 %63, 0
  br i1 %.not51, label %67, label %64

64:                                               ; preds = %61, %62, %40
  %.not52 = icmp eq i32 %4, 0
  br i1 %.not52, label %65, label %69

65:                                               ; preds = %64
  %66 = tail call i32 @ossl_cmp_msg_protect(ptr noundef nonnull %0, ptr noundef nonnull %10) #7
  %.not53 = icmp eq i32 %66, 0
  br i1 %.not53, label %67, label %69

67:                                               ; preds = %65, %62, %59, %54, %44, %30, %23, %12, %9
  tail call void @ERR_new() #7
  tail call void @ERR_set_debug(ptr noundef nonnull @.str, i32 noundef 832, ptr noundef nonnull @__func__.ossl_cmp_error_new) #7
  tail call void (i32, i32, ptr, ...) @ERR_set_error(i32 noundef 58, i32 noundef 118, ptr noundef null) #7
  %68 = tail call ptr @OSSL_CMP_MSG_it() #7
  tail call void @ASN1_item_free(ptr noundef %10, ptr noundef %68) #7
  br label %69

69:                                               ; preds = %64, %65, %5, %67
  %.0 = phi ptr [ null, %67 ], [ null, %5 ], [ %10, %65 ], [ %10, %64 ]
  ret ptr %.0
}